target datalayout = "e-m:e-p270:32:32-p271:32:32-p272:64:64-i64:64-i128:128-f80:128-n8:16:32:64-S128"
target triple = "x86_64-pc-linux-gnu"

%struct.Dch_Pars_t_ = type { i32, i32, i32, i32, i32, i32, i32, i32, i32, i32, i32, i32, i32, i32, i64, i32, i32 }

; Function Attrs: nounwind uwtable
define ptr @Abc_NtkDressComputeEquivs(ptr noundef %0, ptr noundef %1, i32 noundef %2, i32 noundef %3) #0 {
  %5 = alloca ptr, align 8
  %6 = alloca ptr, align 8
  %7 = alloca i32, align 4
  %8 = alloca i32, align 4
  %9 = alloca %struct.Dch_Pars_t_, align 8
  %10 = alloca ptr, align 8
  %11 = alloca ptr, align 8
  %12 = alloca ptr, align 8
  %13 = alloca ptr, align 8
  %14 = alloca ptr, align 8
  %15 = alloca ptr, align 8
  %16 = alloca ptr, align 8
  store ptr %0, ptr %5, align 8
  store ptr %1, ptr %6, align 8
  store i32 %2, ptr %7, align 4
  store i32 %3, ptr %8, align 4
  store ptr %9, ptr %10, align 8
  %17 = load ptr, ptr %5, align 8
  %18 = call ptr @Abc_NtkStrash(ptr noundef %17, i32 noundef 1, i32 noundef 1, i32 noundef 0)
  store ptr %18, ptr %11, align 8
  %19 = load ptr, ptr %6, align 8
  %20 = call ptr @Abc_NtkStrash(ptr noundef %19, i32 noundef 1, i32 noundef 1, i32 noundef 0)
  store ptr %20, ptr %12, align 8
  %21 = load ptr, ptr %11, align 8
  %22 = call ptr @Abc_NtkToDar(ptr noundef %21, i32 noundef 0, i32 noundef 0)
  store ptr %22, ptr %13, align 8
  %23 = load ptr, ptr %12, align 8
  %24 = call ptr @Abc_NtkToDar(ptr noundef %23, i32 noundef 0, i32 noundef 0)
  store ptr %24, ptr %14, align 8
  %25 = load ptr, ptr %13, align 8
  %26 = load ptr, ptr %14, align 8
  %27 = call ptr @Aig_ManCreateDualOutputMiter(ptr noundef %25, ptr noundef %26)
  store ptr %27, ptr %15, align 8
  %28 = load ptr, ptr %10, align 8
  call void @Dch_ManSetDefaultParams(ptr noundef %28)
  %29 = load i32, ptr %7, align 4
  %30 = load ptr, ptr %10, align 8
  %31 = getelementptr inbounds %struct.Dch_Pars_t_, ptr %30, i32 0, i32 1
  store i32 %29, ptr %31, align 4
  %32 = load i32, ptr %8, align 4
  %33 = load ptr, ptr %10, align 8
  %34 = getelementptr inbounds %struct.Dch_Pars_t_, ptr %33, i32 0, i32 13
  store i32 %32, ptr %34, align 4
  %35 = load ptr, ptr %15, align 8
  %36 = load ptr, ptr %10, align 8
  call void @Dch_ComputeEquivalences2(ptr noundef %35, ptr noundef %36)
  %37 = load ptr, ptr %15, align 8
  %38 = load ptr, ptr %5, align 8
  %39 = load ptr, ptr %6, align 8
  %40 = call ptr @Abc_NtkDressMapIds(ptr noundef %37, ptr noundef %38, ptr noundef %39)
  store ptr %40, ptr %16, align 8
  %41 = load ptr, ptr %15, align 8
  call void @Aig_ManStop(ptr noundef %41)
  %42 = load ptr, ptr %13, align 8
  call void @Aig_ManStop(ptr noundef %42)
  %43 = load ptr, ptr %14, align 8
  call void @Aig_ManStop(ptr noundef %43)
  %44 = load ptr, ptr %11, align 8
  call void @Abc_NtkDelete(ptr noundef %44)
  %45 = load ptr, ptr %12, align 8
  call void @Abc_NtkDelete(ptr noundef %45)
  %46 = load ptr, ptr %16, align 8
  ret ptr %46
}