; Function Attrs: nounwind uwtable
define noalias noundef ptr @Abc_NtkDressComputeEquivs(ptr noundef %0, ptr noundef %1, i32 noundef %2, i32 noundef %3) local_unnamed_addr #1 {
  %5 = alloca %struct.Dch_Pars_t_, align 8
  %6 = tail call ptr @Abc_NtkStrash(ptr noundef %0, i32 noundef 1, i32 noundef 1, i32 noundef 0) #20
  %7 = tail call ptr @Abc_NtkStrash(ptr noundef %1, i32 noundef 1, i32 noundef 1, i32 noundef 0) #20
  %8 = tail call ptr @Abc_NtkToDar(ptr noundef %6, i32 noundef 0, i32 noundef 0) #20
  %9 = tail call ptr @Abc_NtkToDar(ptr noundef %7, i32 noundef 0, i32 noundef 0) #20
  %10 = tail call ptr @Aig_ManCreateDualOutputMiter(ptr noundef %8, ptr noundef %9)
  call void @Dch_ManSetDefaultParams(ptr noundef nonnull %5) #20
  %11 = getelementptr inbounds nuw i8, ptr %5, i64 4
  store i32 %2, ptr %11, align 4
  %12 = getelementptr inbounds nuw i8, ptr %5, i64 52
  store i32 %3, ptr %12, align 4
  call void @Dch_ComputeEquivalences2(ptr noundef %10, ptr noundef nonnull %5)
  %13 = call ptr @Abc_NtkDressMapIds(ptr noundef %10, ptr noundef %0, ptr noundef %1)
  call void @Aig_ManStop(ptr noundef %10) #20
  call void @Aig_ManStop(ptr noundef %8) #20
  call void @Aig_ManStop(ptr noundef %9) #20
  call void @Abc_NtkDelete(ptr noundef %6) #20
  call void @Abc_NtkDelete(ptr noundef %7) #20
  ret ptr %13
}